target datalayout = "e-m:e-p270:32:32-p271:32:32-p272:64:64-i64:64-i128:128-f80:128-n8:16:32:64-S128"
target triple = "x86_64-pc-linux-gnu"

%struct.expert_field = type { i32, i32 }
%struct._packet_info = type { ptr, ptr, i32, i32, %struct.nstime_t, %struct.nstime_t, %struct.nstime_t, i8, ptr, ptr, ptr, ptr, %struct._address, %struct._address, %struct._address, %struct._address, %struct._address, %struct._address, i32, ptr, i8, [3 x i8], %struct.anon, i32, i32, i32, i32, ptr, i8, ptr, ptr, i16, i16, i32, i32, i16, i32, i32, ptr, ptr, ptr, i8, i8, i16, i16, i16, i32, i16, i16, ptr, ptr, ptr, ptr, ptr, i32, i32 }
%struct.nstime_t = type { i64, i32 }
%struct._address = type { i32, i32, ptr, ptr }
%struct.anon = type { i8, [3 x i8] }
%struct.e_in6_addr = type { [16 x i8] }

@hf_eigrp_ipv6_prefixlen = internal global i32 0, align 4
@hf_eigrp_ipv6_destination = internal global i32 0, align 4
@ei_eigrp_prefixlen = internal global %struct.expert_field zeroinitializer, align 4
@ei_eigrp_unreachable = internal global %struct.expert_field zeroinitializer, align 4
@.str.418 = private unnamed_addr constant [13 x i8] c"  %c   %s/%u\00", align 1
@.str.422 = private unnamed_addr constant [41 x i8] c"Invalid prefix length %u, must be <= 128\00", align 1

; Function Attrs: inlinehint nounwind null_pointer_is_valid sspstrong uwtable
define internal void @set_address(ptr noundef %0, i32 noundef %1, i32 noundef %2, ptr noundef %3) #4 {
  %5 = alloca ptr, align 8
  %6 = alloca i32, align 4
  %7 = alloca i32, align 4
  %8 = alloca ptr, align 8
  store ptr %0, ptr %5, align 8
  store i32 %1, ptr %6, align 4
  store i32 %2, ptr %7, align 4
  store ptr %3, ptr %8, align 8
  %9 = load i32, ptr %7, align 4
  %10 = icmp eq i32 %9, 0
  br i1 %10, label %11, label %14

11:                                               ; preds = %4
  br label %12

12:                                               ; preds = %11
  br label %13

13:                                               ; preds = %12
  br label %19

14:                                               ; preds = %4
  br label %15

15:                                               ; preds = %14
  br label %16

16:                                               ; preds = %15
  br label %17

17:                                               ; preds = %16
  br label %18

18:                                               ; preds = %17
  br label %19

19:                                               ; preds = %18, %13
  %20 = load i32, ptr %6, align 4
  %21 = load ptr, ptr %5, align 8
  %22 = getelementptr inbounds nuw %struct._address, ptr %21, i32 0, i32 0
  store i32 %20, ptr %22, align 8
  %23 = load i32, ptr %7, align 4
  %24 = load ptr, ptr %5, align 8
  %25 = getelementptr inbounds nuw %struct._address, ptr %24, i32 0, i32 1
  store i32 %23, ptr %25, align 4
  %26 = load ptr, ptr %8, align 8
  %27 = load ptr, ptr %5, align 8
  %28 = getelementptr inbounds nuw %struct._address, ptr %27, i32 0, i32 2
  store ptr %26, ptr %28, align 8
  %29 = load ptr, ptr %5, align 8
  %30 = getelementptr inbounds nuw %struct._address, ptr %29, i32 0, i32 3
  store ptr null, ptr %30, align 8
  ret void
}

; Function Attrs: null_pointer_is_valid sspstrong uwtable
define internal void @dissect_eigrp_ipv6_addrs(ptr noundef %0, ptr noundef %1, ptr noundef %2, ptr noundef %3, i32 noundef %4, i32 noundef %5) #0 {
  %7 = alloca ptr, align 8
  %8 = alloca ptr, align 8
  %9 = alloca ptr, align 8
  %10 = alloca ptr, align 8
  %11 = alloca i32, align 4
  %12 = alloca i32, align 4
  %13 = alloca i8, align 1
  %14 = alloca i32, align 4
  %15 = alloca %struct.e_in6_addr, align 1
  %16 = alloca %struct._address, align 8
  %17 = alloca ptr, align 8
  %18 = alloca ptr, align 8
  %19 = alloca i8, align 1
  store ptr %0, ptr %7, align 8
  store ptr %1, ptr %8, align 8
  store ptr %2, ptr %9, align 8
  store ptr %3, ptr %10, align 8
  store i32 %4, ptr %11, align 4
  store i32 %5, ptr %12, align 4
  call void @llvm.lifetime.start.p0(i64 1, ptr %13) #6
  call void @llvm.lifetime.start.p0(i64 4, ptr %14) #6
  call void @llvm.lifetime.start.p0(i64 16, ptr %15) #6
  call void @llvm.lifetime.start.p0(i64 24, ptr %16) #6
  call void @llvm.lifetime.start.p0(i64 8, ptr %17) #6
  call void @llvm.lifetime.start.p0(i64 8, ptr %18) #6
  call void @llvm.lifetime.start.p0(i64 1, ptr %19) #6
  store i8 1, ptr %19, align 1
  br label %20

20:                                               ; preds = %94, %6
  %21 = load ptr, ptr %9, align 8
  %22 = load i32, ptr %11, align 4
  %23 = call i32 @tvb_reported_length_remaining(ptr noundef %21, i32 noundef %22)
  %24 = icmp sgt i32 %23, 0
  br i1 %24, label %25, label %99

25:                                               ; preds = %20
  %26 = load ptr, ptr %9, align 8
  %27 = load i32, ptr %11, align 4
  %28 = call zeroext i8 @tvb_get_uint8(ptr noundef %26, i32 noundef %27)
  store i8 %28, ptr %13, align 1
  %29 = load ptr, ptr %9, align 8
  %30 = load i32, ptr %11, align 4
  %31 = add i32 %30, 1
  %32 = load i8, ptr %13, align 1
  %33 = zext i8 %32 to i32
  %34 = call i32 @tvb_get_ipv6_addr_with_prefix_len(ptr noundef %29, i32 noundef %31, ptr noundef %15, i32 noundef %33)
  store i32 %34, ptr %14, align 4
  %35 = load i32, ptr %14, align 4
  %36 = icmp slt i32 %35, 0
  br i1 %36, label %37, label %48

37:                                               ; preds = %25
  %38 = load ptr, ptr %8, align 8
  %39 = load i32, ptr @hf_eigrp_ipv6_prefixlen, align 4
  %40 = load ptr, ptr %9, align 8
  %41 = load i32, ptr %11, align 4
  %42 = call ptr @proto_tree_add_item(ptr noundef %38, i32 noundef %39, ptr noundef %40, i32 noundef %41, i32 noundef 1, i32 noundef 0)
  store ptr %42, ptr %17, align 8
  %43 = load ptr, ptr %10, align 8
  %44 = load ptr, ptr %17, align 8
  %45 = load i8, ptr %13, align 1
  %46 = zext i8 %45 to i32
  %47 = call ptr (ptr, ptr, ptr, ptr, ...) @expert_add_info_format(ptr noundef %43, ptr noundef %44, ptr noundef @ei_eigrp_prefixlen, ptr noundef @.str.422, i32 noundef %46)
  br label %99

48:                                               ; preds = %25
  %49 = load ptr, ptr %8, align 8
  %50 = load i32, ptr @hf_eigrp_ipv6_prefixlen, align 4
  %51 = load ptr, ptr %9, align 8
  %52 = load i32, ptr %11, align 4
  %53 = call ptr @proto_tree_add_item(ptr noundef %49, i32 noundef %50, ptr noundef %51, i32 noundef %52, i32 noundef 1, i32 noundef 0)
  %54 = load i32, ptr %11, align 4
  %55 = add i32 %54, 1
  store i32 %55, ptr %11, align 4
  %56 = load i8, ptr %13, align 1
  %57 = zext i8 %56 to i32
  %58 = icmp slt i32 %57, 128
  br i1 %58, label %59, label %67

59:                                               ; preds = %48
  %60 = load i8, ptr %13, align 1
  %61 = zext i8 %60 to i32
  %62 = srem i32 %61, 8
  %63 = icmp eq i32 %62, 0
  br i1 %63, label %64, label %67

64:                                               ; preds = %59
  %65 = load i32, ptr %14, align 4
  %66 = add i32 %65, 1
  store i32 %66, ptr %14, align 4
  br label %67

67:                                               ; preds = %64, %59, %48
  %68 = getelementptr inbounds nuw %struct.e_in6_addr, ptr %15, i32 0, i32 0
  %69 = getelementptr inbounds [16 x i8], ptr %68, i64 0, i64 0
  call void @set_address(ptr noundef %16, i32 noundef 3, i32 noundef 16, ptr noundef %69)
  %70 = load ptr, ptr %8, align 8
  %71 = load i32, ptr @hf_eigrp_ipv6_destination, align 4
  %72 = load ptr, ptr %9, align 8
  %73 = load i32, ptr %11, align 4
  %74 = load i32, ptr %14, align 4
  %75 = call ptr @proto_tree_add_ipv6(ptr noundef %70, i32 noundef %71, ptr noundef %72, i32 noundef %73, i32 noundef %74, ptr noundef %15)
  store ptr %75, ptr %18, align 8
  %76 = load ptr, ptr %7, align 8
  %77 = load i8, ptr %19, align 1, !range !8, !noundef !9
  %78 = trunc i8 %77 to i1
  %79 = select i1 %78, i32 61, i32 44
  %80 = load ptr, ptr %10, align 8
  %81 = getelementptr inbounds nuw %struct._packet_info, ptr %80, i32 0, i32 51
  %82 = load ptr, ptr %81, align 8
  %83 = call ptr @address_to_str(ptr noundef %82, ptr noundef %16)
  %84 = load i8, ptr %13, align 1
  %85 = zext i8 %84 to i32
  call void (ptr, ptr, ...) @proto_item_append_text(ptr noundef %76, ptr noundef @.str.418, i32 noundef %79, ptr noundef %83, i32 noundef %85)
  %86 = load i32, ptr %12, align 4
  %87 = icmp ne i32 %86, 0
  br i1 %87, label %88, label %92

88:                                               ; preds = %67
  %89 = load ptr, ptr %10, align 8
  %90 = load ptr, ptr %18, align 8
  %91 = call ptr @expert_add_info(ptr noundef %89, ptr noundef %90, ptr noundef @ei_eigrp_unreachable)
  br label %92

92:                                               ; preds = %88, %67
  br label %93

93:                                               ; preds = %92
  store i8 0, ptr %19, align 1
  br label %94

94:                                               ; preds = %93
  %95 = load i32, ptr %14, align 4
  %96 = add i32 1, %95
  %97 = load i32, ptr %11, align 4
  %98 = add i32 %97, %96
  store i32 %98, ptr %11, align 4
  br label %20, !llvm.loop !13

99:                                               ; preds = %37, %20
  call void @llvm.lifetime.end.p0(i64 1, ptr %19) #6
  call void @llvm.lifetime.end.p0(i64 8, ptr %18) #6
  call void @llvm.lifetime.end.p0(i64 8, ptr %17) #6
  call void @llvm.lifetime.end.p0(i64 24, ptr %16) #6
  call void @llvm.lifetime.end.p0(i64 16, ptr %15) #6
  call void @llvm.lifetime.end.p0(i64 4, ptr %14) #6
  call void @llvm.lifetime.end.p0(i64 1, ptr %13) #6
  ret void
}