; Function Attrs: null_pointer_is_valid sspstrong uwtable
define internal fastcc void @dissect_eigrp_ipv6_addrs(ptr noundef %0, ptr noundef %1, ptr noundef %2, ptr noundef %3, i32 noundef %4) unnamed_addr #0 {
  %6 = alloca %struct.e_in6_addr, align 1
  %7 = alloca %struct._address, align 8
  call void @llvm.lifetime.start.p0(i64 16, ptr nonnull %6) #7
  call void @llvm.lifetime.start.p0(i64 24, ptr nonnull %7) #7
  %8 = tail call i32 @tvb_reported_length_remaining(ptr noundef %2, i32 noundef %4)
  %9 = icmp sgt i32 %8, 0
  br i1 %9, label %.lr.ph, label %.loopexit

.lr.ph:                                           ; preds = %5
  %10 = getelementptr inbounds nuw i8, ptr %7, i64 4
  %11 = getelementptr inbounds nuw i8, ptr %7, i64 8
  %12 = getelementptr inbounds nuw i8, ptr %7, i64 16
  %13 = getelementptr inbounds nuw i8, ptr %3, i64 408
  br label %14

14:                                               ; preds = %.lr.ph, %24
  %.040 = phi i32 [ 61, %.lr.ph ], [ 44, %24 ]
  %.03339 = phi i32 [ %4, %.lr.ph ], [ %34, %24 ]
  %15 = call zeroext i8 @tvb_get_uint8(ptr noundef %2, i32 noundef %.03339)
  %16 = add i32 %.03339, 1
  %17 = zext i8 %15 to i32
  %18 = call i32 @tvb_get_ipv6_addr_with_prefix_len(ptr noundef %2, i32 noundef %16, ptr noundef nonnull %6, i32 noundef %17)
  %19 = icmp slt i32 %18, 0
  %20 = load i32, ptr @hf_eigrp_ipv6_prefixlen, align 4
  %21 = call ptr @proto_tree_add_item(ptr noundef %1, i32 noundef %20, ptr noundef %2, i32 noundef %.03339, i32 noundef 1, i32 noundef 0)
  br i1 %19, label %22, label %24

22:                                               ; preds = %14
  %23 = call ptr (ptr, ptr, ptr, ptr, ...) @expert_add_info_format(ptr noundef %3, ptr noundef %21, ptr noundef nonnull @ei_eigrp_prefixlen, ptr noundef nonnull @.str.422, i32 noundef %17)
  br label %.loopexit

24:                                               ; preds = %14
  %25 = icmp sgt i8 %15, -1
  %26 = and i32 %17, 7
  %27 = icmp eq i32 %26, 0
  %or.cond = and i1 %25, %27
  %28 = zext i1 %or.cond to i32
  %.034 = add nuw i32 %18, %28
  store i32 3, ptr %7, align 8
  store i32 16, ptr %10, align 4
  store ptr %6, ptr %11, align 8
  store ptr null, ptr %12, align 8
  %29 = load i32, ptr @hf_eigrp_ipv6_destination, align 4
  %30 = call ptr @proto_tree_add_ipv6(ptr noundef %1, i32 noundef %29, ptr noundef %2, i32 noundef %16, i32 noundef %.034, ptr noundef nonnull %6)
  %31 = load ptr, ptr %13, align 8
  %32 = call ptr @address_to_str(ptr noundef %31, ptr noundef nonnull %7)
  call void (ptr, ptr, ...) @proto_item_append_text(ptr noundef %0, ptr noundef nonnull @.str.418, i32 noundef %.040, ptr noundef %32, i32 noundef %17)
  %33 = add i32 %.03339, 2
  %34 = add i32 %33, %.034
  %35 = call i32 @tvb_reported_length_remaining(ptr noundef %2, i32 noundef %34)
  %36 = icmp sgt i32 %35, 0
  br i1 %36, label %14, label %.loopexit, !llvm.loop !13

.loopexit:                                        ; preds = %24, %5, %22
  call void @llvm.lifetime.end.p0(i64 24, ptr nonnull %7) #7
  call void @llvm.lifetime.end.p0(i64 16, ptr nonnull %6) #7
  ret void
}